(iSettings
Settings
p0
(dp1
S'refreshRate'
p2
F60.0
sS'delim'
p3
S'/'
p4
sS'trialDur'
p5
I17
sS'nrframes'
p6
F1021.0
sS'selectedCLR'
p7
F-0.5
sS'mouseoverCLR'
p8
F0.5
sS'phiRange'
p9
(lp10
I90
aI90
asS'agentCLR'
p11
I1
sS'monitor'
p12
(ipsychopy.monitors.calibTools
Monitor
p13
(dp14
S'calibs'
p15
(dp16
S'2013_11_15 14:31'
p17
(dp18
S'lineariseMethod'
p19
I1
sS'distance'
p20
I50
sS'psychopyVersion'
p21
S'1.77.01'
p22
sS'gammaGrid'
p23
cnumpy.core.multiarray
_reconstruct
p24
(cnumpy
ndarray
p25
(I0
tp26
S'b'
p27
tp28
Rp29
(I1
(I4
I3
tp30
cnumpy
dtype
p31
(S'f8'
p32
I0
I1
tp33
Rp34
(I3
S'<'
p35
NNNI-1
I-1
I0
tp36
bI00
S'\x00\x00\x00\x00\x00\x00\x00\x00\x00\x00\x00\x00\x00\x00\xf0?\x00\x00\x00\x00\x00\x00\xf0?\x00\x00\x00\x00\x00\x00\x00\x00\x00\x00\x00\x00\x00\x00\xf0?\x00\x00\x00\x00\x00\x00\xf0?\x00\x00\x00\x00\x00\x00\x00\x00\x00\x00\x00\x00\x00\x00\xf0?\x00\x00\x00\x00\x00\x00\xf0?\x00\x00\x00\x00\x00\x00\x00\x00\x00\x00\x00\x00\x00\x00\xf0?\x00\x00\x00\x00\x00\x00\xf0?'
p37
tp38
bsS'sizePix'
p39
(I1280
I1024
tp40
sS'notes'
p41
NsS'width'
p42
F37.8
sS'calibDate'
p43
ctime
struct_time
p44
((I2013
I11
I15
I14
I31
I53
I4
I319
I0
tp45
(dp46
tp47
Rp48
sS'usebits'
p49
I00
sS'gamma'
p50
NsssS'_gammaInterpolator'
p51
NsS'name'
p52
S'dell'
p53
sS'__type__'
p54
S'psychoMonitor'
p55
sS'currentCalib'
p56
g18
sS'calibNames'
p57
(lp58
g17
asS'currentCalibName'
p59
g17
sS'_gammaInterpolator2'
p60
NsbsS'outputPath'
p61
S'/home/matus/Desktop/research/wolfpackRevisited/behData/'
p62
sS'winPos'
p63
(I0
I0
tp64
sS'fullscr'
p65
I00
sS'agentRadius'
p66
F0.95
sS'initDistCC'
p67
(lp68
F4.0
aF4.0
asS'inputPath'
p69
S'/home/matus/Desktop/research/wolfpackRevisited/trajData/'
p70
sS'aSpeed'
p71
F0.13
sS'bckgCLR'
p72
(lp73
I-1
aI-1
aI-1
asS'agentSize'
p74
F1.9
sS'stimPath'
p75
S'/home/matus/Desktop/research/wolfpackRevisited/stimuli/'
p76
sS'pDirChange'
p77
(lp78
F0.05
aF0.05
aF0.05
asS'os'
p79
I0
sS'guiPos'
p80
(I0
I400
tp81
sb.